Certificate:
    Data:
        Version: 3 (0x2)
        Serial Number: 2 (0x2)
    Signature Algorithm: sha256WithRSAEncryption
        Issuer: C=US, ST=Maryland, L=Baltimore, O=Test CA, Limited, OU=Server Research Department, CN=Test CA/emailAddress=test@example.com
        Validity
            Not Before: Jan 10 22:03:40 2018 GMT
            Not After : Oct  6 22:03:40 2020 GMT
        Subject: C=US, ST=MD, L=Baltimore, O=Test CA, Limited, CN=dev.localhost
        Subject Public Key Info:
            Public Key Algorithm: rsaEncryption
                Public-Key: (2048 bit)
                Modulus:
                    00:bb:95:66:d6:1f:b0:38:e0:52:29:61:9c:71:29:
                    98:ae:02:1b:69:8b:ac:dc:ad:d9:fa:7c:39:de:9b:
                    80:d9:ac:64:8a:98:61:06:ed:74:db:8f:08:ac:47:
                    56:f6:df:c8:04:91:a6:be:be:9f:12:eb:a0:42:42:
                    4a:89:e5:1f:56:c8:53:dc:18:f2:7a:90:79:93:5e:
                    40:72:45:b8:b4:7a:5d:27:0c:04:09:56:5e:0d:4a:
                    23:6a:6a:8d:1d:2e:81:ff:e4:ef:1a:c4:78:35:82:
                    cc:20:2e:c2:88:18:f6:48:56:a6:10:c1:72:59:a3:
                    6f:af:88:41:56:65:88:61:cb:b5:d2:80:14:88:36:
                    bd:b8:f0:bd:ed:b1:3d:3c:2e:61:b5:47:2b:f7:23:
                    c9:cf:2f:15:ac:8d:7f:63:e3:f3:f1:72:4c:04:30:
                    cc:31:03:bf:af:aa:9c:1e:d5:f2:24:6c:2c:5d:4d:
                    09:3f:3a:6e:e9:be:b3:dc:0d:24:61:a2:12:7d:3b:
                    c4:e5:4b:d3:00:b7:d9:41:2f:61:59:b5:fb:a5:97:
                    69:3f:0d:10:81:be:d2:64:e3:ef:96:5b:6b:ae:53:
                    f9:c4:30:79:73:a7:17:df:93:45:dd:ab:f2:b9:2b:
                    a0:8c:9d:bc:69:3e:ed:8f:0b:9f:c7:ce:3f:fc:a3:
                    bb:c7
                Exponent: 65537 (0x10001)
        X509v3 extensions:
            X509v3 Subject Key Identifier: 
                30:EE:1C:C5:64:3E:B8:55:0F:78:10:E9:6A:D0:98:DC:F2:61:8F:03
            X509v3 Authority Key Identifier: 
                keyid:23:34:C4:A5:1B:3A:67:77:03:AA:C5:B0:95:A7:54:1A:E2:31:FC:DA

            X509v3 Basic Constraints: 
                CA:FALSE
            X509v3 Key Usage: 
                Digital Signature, Key Encipherment
            X509v3 Subject Alternative Name: 
                DNS:dev.localhost, DNS:*.dev.localhost, IP Address:127.0.0.1, IP Address:0:0:0:0:0:0:0:1
            Netscape Comment: 
                OpenSSL Generated Certificate
    Signature Algorithm: sha256WithRSAEncryption
         91:d7:27:27:2c:76:6b:78:e3:75:69:64:f1:7e:6a:dd:11:a4:
         2e:fc:a3:1d:b8:dd:e1:98:e8:40:25:df:e1:c6:65:5a:b2:44:
         23:0b:c5:4a:d8:7a:3a:90:cb:b8:ab:e6:0d:d0:86:84:f4:5e:
         c7:e5:e1:fb:95:1e:20:ed:6b:00:5e:82:ef:0c:59:76:e9:0b:
         5d:37:98:39:b1:d3:98:fb:c3:d8:2a:dc:cc:64:fb:9c:51:80:
         1b:df:45:5a:60:d8:84:65:8f:95:17:a4:62:51:6f:9e:56:0b:
         44:24:f4:8c:47:86:12:50:c5:0b:4c:ce:fa:61:04:27:9f:39:
         e0:b5:b6:d0:97:db:8b:bd:b1:f2:24:3a:35:77:f1:38:21:cf:
         14:6c:11:03:1a:a6:73:7f:e3:9e:b0:4f:8e:10:50:94:84:46:
         ee:4a:d2:c2:7d:82:43:54:41:68:49:40:0b:d2:9f:78:c0:50:
         7d:e9:d6:4c:41:80:4d:73:2e:04:aa:48:6c:41:ce:78:10:d0:
         5e:70:eb:21:b0:ff:eb:1c:46:41:fc:30:ad:60:1b:a5:03:ec:
         9b:a1:0a:9c:05:8c:17:f7:0d:66:c2:3a:3a:d8:fe:ea:35:9d:
         29:bb:81:97:fc:23:4f:d1:b0:2e:c4:3f:94:9a:1b:02:e0:18:
         d7:8b:c2:ae:80:c9:dc:bd:50:89:09:ed:77:b9:52:4b:c6:ff:
         43:eb:7b:e8:7d:cf:45:c1:6c:e3:68:10:6c:e6:11:6a:5f:34:
         be:1b:84:f4:ea:eb:6a:6b:91:74:11:54:16:87:5c:0b:de:38:
         73:a9:3c:96:06:9b:17:f5:9d:8b:8b:8c:14:7f:d7:b4:79:d2:
         c6:71:0f:f1:65:25:c0:0e:80:65:61:22:23:a6:a1:ed:35:ca:
         14:27:ac:56:67:36:4b:19:64:73:3e:a6:9a:0a:d0:e3:f4:1d:
         ba:eb:f3:1d:f9:4d:10:9e:48:fb:f1:12:d5:67:e5:6d:e5:3e:
         a0:85:28:57:39:18:f0:ec:ad:dd:6f:7a:97:ff:e3:99:49:ed:
         25:1d:8b:76:4c:5e:0a:6f:08:49:75:1c:3a:39:e3:71:78:9f:
         12:70:49:c3:a6:7b:a1:1c:9c:47:02:d6:f3:ad:e8:e1:69:a1:
         ef:c7:12:72:a1:b5:11:bc:88:69:a6:1e:35:46:09:99:f6:18:
         72:4e:c7:21:b3:b6:f3:e8:83:cd:42:e0:5e:92:60:68:a3:01:
         05:23:40:30:c4:45:28:50:ad:ca:f8:4d:1c:7d:35:99:24:3a:
         48:bc:98:07:ec:5f:50:93:67:ad:51:b9:5c:b9:2b:2a:6d:92:
         95:ba:aa:36:b8:a5:7e:4b
-----BEGIN CERTIFICATE-----
MIIFUTCCAzmgAwIBAgIBAjANBgkqhkiG9w0BAQsFADCBpzELMAkGA1UEBhMCVVMx
ETAPBgNVBAgMCE1hcnlsYW5kMRIwEAYDVQQHDAlCYWx0aW1vcmUxGTAXBgNVBAoM
EFRlc3QgQ0EsIExpbWl0ZWQxIzAhBgNVBAsMGlNlcnZlciBSZXNlYXJjaCBEZXBh
cnRtZW50MRAwDgYDVQQDDAdUZXN0IENBMR8wHQYJKoZIhvcNAQkBFhB0ZXN0QGV4
YW1wbGUuY29tMB4XDTE4MDExMDIyMDM0MFoXDTIwMTAwNjIyMDM0MFowYTELMAkG
A1UEBhMCVVMxCzAJBgNVBAgMAk1EMRIwEAYDVQQHDAlCYWx0aW1vcmUxGTAXBgNV
BAoMEFRlc3QgQ0EsIExpbWl0ZWQxFjAUBgNVBAMMDWRldi5sb2NhbGhvc3QwggEi
MA0GCSqGSIb3DQEBAQUAA4IBDwAwggEKAoIBAQC7lWbWH7A44FIpYZxxKZiuAhtp
i6zcrdn6fDnem4DZrGSKmGEG7XTbjwisR1b238gEkaa+vp8S66BCQkqJ5R9WyFPc
GPJ6kHmTXkByRbi0el0nDAQJVl4NSiNqao0dLoH/5O8axHg1gswgLsKIGPZIVqYQ
wXJZo2+viEFWZYhhy7XSgBSINr248L3tsT08LmG1Ryv3I8nPLxWsjX9j4/PxckwE
MMwxA7+vqpwe1fIkbCxdTQk/Om7pvrPcDSRhohJ9O8TlS9MAt9lBL2FZtfull2k/
DRCBvtJk4++WW2uuU/nEMHlzpxffk0Xdq/K5K6CMnbxpPu2PC5/Hzj/8o7vHAgMB
AAGjgcwwgckwHQYDVR0OBBYEFDDuHMVkPrhVD3gQ6WrQmNzyYY8DMB8GA1UdIwQY
MBaAFCM0xKUbOmd3A6rFsJWnVBriMfzaMAkGA1UdEwQCMAAwCwYDVR0PBAQDAgWg
MEEGA1UdEQQ6MDiCDWRldi5sb2NhbGhvc3SCDyouZGV2LmxvY2FsaG9zdIcEfwAA
AYcQAAAAAAAAAAAAAAAAAAAAATAsBglghkgBhvhCAQ0EHxYdT3BlblNTTCBHZW5l
cmF0ZWQgQ2VydGlmaWNhdGUwDQYJKoZIhvcNAQELBQADggIBAJHXJycsdmt443Vp
ZPF+at0RpC78ox243eGY6EAl3+HGZVqyRCMLxUrYejqQy7ir5g3QhoT0Xsfl4fuV
HiDtawBegu8MWXbpC103mDmx05j7w9gq3Mxk+5xRgBvfRVpg2IRlj5UXpGJRb55W
C0Qk9IxHhhJQxQtMzvphBCefOeC1ttCX24u9sfIkOjV38TghzxRsEQMapnN/456w
T44QUJSERu5K0sJ9gkNUQWhJQAvSn3jAUH3p1kxBgE1zLgSqSGxBzngQ0F5w6yGw
/+scRkH8MK1gG6UD7JuhCpwFjBf3DWbCOjrY/uo1nSm7gZf8I0/RsC7EP5SaGwLg
GNeLwq6Aydy9UIkJ7Xe5UkvG/0Pre+h9z0XBbONoEGzmEWpfNL4bhPTq62prkXQR
VBaHXAveOHOpPJYGmxf1nYuLjBR/17R50sZxD/FlJcAOgGVhIiOmoe01yhQnrFZn
NksZZHM+ppoK0OP0Hbrr8x35TRCeSPvxEtVn5W3lPqCFKFc5GPDsrd1vepf/45lJ
7SUdi3ZMXgpvCEl1HDo543F4nxJwScOme6EcnEcC1vOt6OFpoe/HEnKhtRG8iGmm
HjVGCZn2GHJOxyGztvPog81C4F6SYGijAQUjQDDERShQrcr4TRx9NZkkOki8mAfs
X1CTZ61RuVy5KyptkpW6qja4pX5L
-----END CERTIFICATE-----
