Certificate:
    Data:
        Version: 3 (0x2)
        Serial Number: 1 (0x1)
    Signature Algorithm: sha256WithRSAEncryption
        Issuer: C=US, ST=Maryland, L=Baltimore, O=Test CA, Limited, OU=Server Research Department, CN=Test CA/emailAddress=test@example.com
        Validity
            Not Before: Jan  3 06:57:05 2018 GMT
            Not After : Sep 29 06:57:05 2020 GMT
        Subject: C=US, ST=MD, L=Baltimore, O=Test CA, Limited, CN=*.dev.com
        Subject Public Key Info:
            Public Key Algorithm: rsaEncryption
                Public-Key: (2048 bit)
                Modulus:
                    00:e3:97:7b:37:19:77:33:70:ba:ea:ba:72:cd:6c:
                    20:89:e2:f6:85:8f:85:0f:bf:06:53:56:23:31:82:
                    3f:70:be:b9:15:96:29:c2:bf:46:fb:47:dd:b8:d9:
                    2d:e9:3d:32:4a:90:7a:ba:88:f0:b1:10:3f:e6:c1:
                    8b:b5:bb:d8:11:d1:93:a8:0b:3f:9e:6a:68:eb:7a:
                    61:7c:71:78:7a:a4:11:14:2d:2d:85:44:ff:65:3d:
                    15:2e:82:09:e0:fc:7f:49:85:b8:07:54:f9:d0:6e:
                    5b:10:9b:1f:42:8b:43:76:ca:d5:73:8e:72:11:93:
                    02:4a:b2:4f:11:de:7a:16:65:29:56:73:32:8d:16:
                    53:f9:a7:37:bc:54:c0:45:a6:d2:a2:41:e2:38:de:
                    41:a8:18:fe:24:92:28:0b:29:91:09:f0:4a:fe:d9:
                    83:63:43:8e:41:6a:db:6f:6a:c0:c0:7e:da:90:9a:
                    15:16:f1:e7:7a:76:3a:aa:cb:0e:a6:e8:82:87:d9:
                    33:e5:93:cd:8c:77:4c:61:bd:1c:8f:b5:ba:d3:40:
                    c8:96:34:de:94:99:71:37:2f:a1:41:37:50:f1:82:
                    9e:b6:f8:3a:5c:8c:09:5b:03:4e:63:88:5f:d1:f2:
                    8b:5d:fb:b7:77:22:75:dd:cf:7c:30:50:2a:fb:3a:
                    c3:1f
                Exponent: 65537 (0x10001)
        X509v3 extensions:
            X509v3 Subject Key Identifier: 
                2C:73:61:0D:93:68:E4:56:38:B8:66:68:DB:31:3B:94:CA:99:9C:A5
            X509v3 Authority Key Identifier: 
                keyid:23:34:C4:A5:1B:3A:67:77:03:AA:C5:B0:95:A7:54:1A:E2:31:FC:DA

            X509v3 Basic Constraints: 
                CA:FALSE
            X509v3 Key Usage: 
                Digital Signature, Key Encipherment
            X509v3 Subject Alternative Name: 
                DNS:*.dev.com, DNS:dev.com, IP Address:127.0.0.1, IP Address:0:0:0:0:0:0:0:1
            Netscape Comment: 
                OpenSSL Generated Certificate
    Signature Algorithm: sha256WithRSAEncryption
         2a:ba:12:91:3e:bf:d9:3c:f0:fa:50:80:27:3b:4d:4b:50:7c:
         bc:a7:10:54:f2:c8:95:e5:78:fd:a4:38:b6:30:76:f9:02:64:
         ca:5f:f6:93:b8:89:e6:8e:e3:51:3c:42:83:61:52:1d:76:92:
         2f:81:9a:81:da:c1:32:7f:da:f7:70:cb:43:f2:40:71:6c:9c:
         aa:84:14:9d:44:36:19:4a:e2:84:c9:34:d2:a4:cf:55:2c:b6:
         bd:97:de:91:3b:ee:fc:0f:c0:e2:6c:2f:55:3d:84:2c:5c:de:
         89:9d:fc:2c:92:30:6a:4e:41:ef:76:05:1e:6b:8c:cb:29:76:
         1a:2f:cb:7c:2d:4d:17:70:82:dc:42:21:b2:9d:4a:ff:d2:b5:
         f4:55:d4:32:49:8f:7d:10:7d:ac:f5:da:2b:bb:d0:1a:a0:a2:
         73:91:e8:19:6f:19:10:35:25:2d:a4:4b:9e:48:8a:e3:9e:1a:
         a1:a0:dc:7d:28:c1:0c:b7:b5:26:d7:0c:1c:7f:ad:60:a3:1e:
         63:47:c0:fc:03:2c:90:9d:2a:cd:74:41:e3:a0:a3:90:71:e8:
         79:03:9f:a7:bc:4b:c9:5d:f8:0a:37:fd:75:f4:90:ca:e4:46:
         05:a1:a3:1a:ee:37:31:a0:64:99:f8:bb:35:99:ce:87:2b:da:
         e2:ad:34:43:4c:33:8f:b5:a8:73:74:12:48:a9:ed:74:b8:23:
         97:bb:0e:86:5d:ae:cb:ff:de:b0:89:1d:0e:7e:50:4f:02:24:
         a5:1c:de:f1:fd:4b:79:36:f0:4e:22:f0:9b:2d:f2:60:30:f1:
         31:7f:dc:19:ee:b8:90:f1:4e:b3:b2:11:c5:95:4e:f9:ff:d9:
         e7:e2:3d:ec:2e:91:a9:4a:af:53:eb:cf:53:3c:ed:24:58:e7:
         71:ea:c9:4f:15:ad:24:5f:00:70:8b:51:a6:da:5d:62:cc:a5:
         a3:15:5d:16:f8:88:55:35:09:3a:66:56:ba:49:d9:6e:0b:25:
         74:62:b4:46:b6:be:87:64:b5:62:d9:c4:b6:9d:0b:8a:5a:36:
         f7:3c:dd:ab:58:af:de:57:a7:be:5e:c7:a4:58:15:41:bf:4f:
         21:2d:44:da:f3:6f:0a:06:e1:d1:99:a7:ec:6f:11:f4:d8:17:
         b9:08:60:5a:b9:37:fb:7c:de:c0:62:3c:db:ab:68:54:12:49:
         5a:93:07:a4:27:4b:c8:20:91:e8:92:e5:83:42:da:da:c9:42:
         a8:15:12:bb:4b:ff:84:a1:37:15:35:d6:03:b9:09:27:ce:7c:
         4f:38:a1:bc:b5:05:1d:ba:2a:e4:da:ee:4b:b0:f4:62:a2:52:
         7e:c3:4c:ca:c6:a7:dd:ba
-----BEGIN CERTIFICATE-----
MIIFQTCCAymgAwIBAgIBATANBgkqhkiG9w0BAQsFADCBpzELMAkGA1UEBhMCVVMx
ETAPBgNVBAgMCE1hcnlsYW5kMRIwEAYDVQQHDAlCYWx0aW1vcmUxGTAXBgNVBAoM
EFRlc3QgQ0EsIExpbWl0ZWQxIzAhBgNVBAsMGlNlcnZlciBSZXNlYXJjaCBEZXBh
cnRtZW50MRAwDgYDVQQDDAdUZXN0IENBMR8wHQYJKoZIhvcNAQkBFhB0ZXN0QGV4
YW1wbGUuY29tMB4XDTE4MDEwMzA2NTcwNVoXDTIwMDkyOTA2NTcwNVowXTELMAkG
A1UEBhMCVVMxCzAJBgNVBAgMAk1EMRIwEAYDVQQHDAlCYWx0aW1vcmUxGTAXBgNV
BAoMEFRlc3QgQ0EsIExpbWl0ZWQxEjAQBgNVBAMMCSouZGV2LmNvbTCCASIwDQYJ
KoZIhvcNAQEBBQADggEPADCCAQoCggEBAOOXezcZdzNwuuq6cs1sIIni9oWPhQ+/
BlNWIzGCP3C+uRWWKcK/RvtH3bjZLek9MkqQerqI8LEQP+bBi7W72BHRk6gLP55q
aOt6YXxxeHqkERQtLYVE/2U9FS6CCeD8f0mFuAdU+dBuWxCbH0KLQ3bK1XOOchGT
AkqyTxHeehZlKVZzMo0WU/mnN7xUwEWm0qJB4jjeQagY/iSSKAspkQnwSv7Zg2ND
jkFq229qwMB+2pCaFRbx53p2OqrLDqbogofZM+WTzYx3TGG9HI+1utNAyJY03pSZ
cTcvoUE3UPGCnrb4OlyMCVsDTmOIX9Hyi137t3cidd3PfDBQKvs6wx8CAwEAAaOB
wDCBvTAdBgNVHQ4EFgQULHNhDZNo5FY4uGZo2zE7lMqZnKUwHwYDVR0jBBgwFoAU
IzTEpRs6Z3cDqsWwladUGuIx/NowCQYDVR0TBAIwADALBgNVHQ8EBAMCBaAwNQYD
VR0RBC4wLIIJKi5kZXYuY29tggdkZXYuY29thwR/AAABhxAAAAAAAAAAAAAAAAAA
AAABMCwGCWCGSAGG+EIBDQQfFh1PcGVuU1NMIEdlbmVyYXRlZCBDZXJ0aWZpY2F0
ZTANBgkqhkiG9w0BAQsFAAOCAgEAKroSkT6/2Tzw+lCAJztNS1B8vKcQVPLIleV4
/aQ4tjB2+QJkyl/2k7iJ5o7jUTxCg2FSHXaSL4GagdrBMn/a93DLQ/JAcWycqoQU
nUQ2GUrihMk00qTPVSy2vZfekTvu/A/A4mwvVT2ELFzeiZ38LJIwak5B73YFHmuM
yyl2Gi/LfC1NF3CC3EIhsp1K/9K19FXUMkmPfRB9rPXaK7vQGqCic5HoGW8ZEDUl
LaRLnkiK454aoaDcfSjBDLe1JtcMHH+tYKMeY0fA/AMskJ0qzXRB46CjkHHoeQOf
p7xLyV34Cjf9dfSQyuRGBaGjGu43MaBkmfi7NZnOhyva4q00Q0wzj7Woc3QSSKnt
dLgjl7sOhl2uy//esIkdDn5QTwIkpRze8f1LeTbwTiLwmy3yYDDxMX/cGe64kPFO
s7IRxZVO+f/Z5+I97C6RqUqvU+vPUzztJFjncerJTxWtJF8AcItRptpdYsyloxVd
FviIVTUJOmZWuknZbgsldGK0Rra+h2S1YtnEtp0Lilo29zzdq1iv3lenvl7HpFgV
Qb9PIS1E2vNvCgbh0Zmn7G8R9NgXuQhgWrk3+3zewGI826toVBJJWpMHpCdLyCCR
6JLlg0La2slCqBUSu0v/hKE3FTXWA7kJJ858TzihvLUFHboq5NruS7D0YqJSfsNM
ysan3bo=
-----END CERTIFICATE-----
